target datalayout = "e-m:e-p270:32:32-p271:32:32-p272:64:64-i64:64-i128:128-f80:128-n8:16:32:64-S128"
target triple = "x86_64-pc-linux-gnu"

; Function Attrs: null_pointer_is_valid sspstrong uwtable
define internal i32 @dissect_ocp1_tcp(ptr noundef %0, ptr noundef %1, ptr noundef %2, ptr noundef %3) #0 {
  %5 = alloca i32, align 4
  %6 = alloca ptr, align 8
  %7 = alloca ptr, align 8
  %8 = alloca ptr, align 8
  %9 = alloca ptr, align 8
  store ptr %0, ptr %6, align 8
  store ptr %1, ptr %7, align 8
  store ptr %2, ptr %8, align 8
  store ptr %3, ptr %9, align 8
  %10 = load ptr, ptr %6, align 8
  %11 = call zeroext i1 @tvb_bytes_exist(ptr noundef %10, i32 noundef 0, i32 noundef 10)
  br i1 %11, label %13, label %12

12:                                               ; preds = %4
  store i32 0, ptr %5, align 4
  br label %20

13:                                               ; preds = %4
  %14 = load ptr, ptr %6, align 8
  %15 = load ptr, ptr %7, align 8
  %16 = load ptr, ptr %8, align 8
  %17 = load ptr, ptr %9, align 8
  call void @tcp_dissect_pdus(ptr noundef %14, ptr noundef %15, ptr noundef %16, i1 noundef zeroext true, i32 noundef 10, ptr noundef @get_ocp1_message_len, ptr noundef @dissect_ocp1, ptr noundef %17)
  %18 = load ptr, ptr %6, align 8
  %19 = call i32 @tvb_reported_length(ptr noundef %18)
  store i32 %19, ptr %5, align 4
  br label %20

20:                                               ; preds = %13, %12
  %21 = load i32, ptr %5, align 4
  ret i32 %21
}